; Function Attrs: mustprogress uwtable
define noundef i32 @_ZN10open_spiel10algorithms18CFRInfoStateValues17SampleActionIndexEdd(ptr nocapture noundef nonnull readonly align 8 dereferenceable(96) %0, double noundef %1, double noundef %2) local_unnamed_addr #4 align 2 personality ptr @__gxx_personality_v0 {
  %4 = alloca %"class.std::__cxx11::basic_string", align 8
  %5 = alloca %"class.absl::debian2::AlphaNum", align 8
  %6 = alloca %"class.absl::debian2::AlphaNum", align 8
  %7 = getelementptr inbounds nuw i8, ptr %0, i64 72
  %8 = getelementptr inbounds i8, ptr %0, i64 80
  %9 = load ptr, ptr %8, align 8
  %10 = load ptr, ptr %7, align 8
  %.not = icmp eq ptr %9, %10
  br i1 %.not, label %_ZN4absl7debian28AlphaNumC2EPKc.exit, label %.lr.ph

.lr.ph:                                           ; preds = %3
  %11 = ptrtoint ptr %9 to i64
  %12 = ptrtoint ptr %10 to i64
  %13 = sub i64 %11, %12
  %14 = ashr exact i64 %13, 3
  %15 = uitofp i64 %14 to double
  %16 = fdiv double %1, %15
  %17 = fsub double 1.000000e+00, %1
  %umax = tail call i64 @llvm.umax.i64(i64 %14, i64 1)
  br label %18

18:                                               ; preds = %.lr.ph, %27
  %indvars.iv = phi i64 [ 0, %.lr.ph ], [ %indvars.iv.next, %27 ]
  %.023 = phi double [ 0.000000e+00, %.lr.ph ], [ %23, %27 ]
  %19 = getelementptr inbounds double, ptr %10, i64 %indvars.iv
  %20 = load double, ptr %19, align 8
  %21 = tail call double @llvm.fmuladd.f64(double %17, double %20, double %16)
  %22 = fcmp oge double %2, %.023
  %23 = fadd double %.023, %21
  %24 = fcmp olt double %2, %23
  %or.cond = select i1 %22, i1 %24, i1 false
  br i1 %or.cond, label %25, label %27

25:                                               ; preds = %18
  %26 = trunc nuw nsw i64 %indvars.iv to i32
  ret i32 %26

27:                                               ; preds = %18
  %indvars.iv.next = add nuw i64 %indvars.iv, 1
  %exitcond.not = icmp eq i64 %indvars.iv.next, %umax
  br i1 %exitcond.not, label %_ZN4absl7debian28AlphaNumC2EPKc.exit, label %18, !llvm.loop !168

_ZN4absl7debian28AlphaNumC2EPKc.exit:             ; preds = %27, %3
  %.0.lcssa = phi double [ 0.000000e+00, %3 ], [ %23, %27 ]
  store ptr @.str.39, ptr %5, align 8
  %28 = getelementptr inbounds nuw i8, ptr %5, i64 8
  store i64 35, ptr %28, align 8
  %29 = getelementptr inbounds nuw i8, ptr %6, i64 16
  %30 = call noundef i64 @_ZN4absl7debian216numbers_internal17SixDigitsToBufferEdPc(double noundef %.0.lcssa, ptr noundef nonnull %29)
  store ptr %29, ptr %6, align 8
  %31 = icmp sgt i64 %30, -1
  br i1 %31, label %_ZN4absl7debian28AlphaNumC2Ed.exit, label %32

32:                                               ; preds = %_ZN4absl7debian28AlphaNumC2EPKc.exit
  call void @llvm.trap()
  unreachable

_ZN4absl7debian28AlphaNumC2Ed.exit:               ; preds = %_ZN4absl7debian28AlphaNumC2EPKc.exit
  %33 = getelementptr inbounds nuw i8, ptr %6, i64 8
  store i64 %30, ptr %33, align 8
  call void @_ZN4absl7debian26StrCatB5cxx11ERKNS0_8AlphaNumES3_(ptr dead_on_unwind nonnull writable sret(%"class.std::__cxx11::basic_string") align 8 %4, ptr noundef nonnull align 8 dereferenceable(48) %5, ptr noundef nonnull align 8 dereferenceable(48) %6)
  invoke void @_ZN10open_spiel15SpielFatalErrorERKNSt7__cxx1112basic_stringIcSt11char_traitsIcESaIcEEE(ptr noundef nonnull align 8 dereferenceable(32) %4) #27
          to label %34 unwind label %35

34:                                               ; preds = %_ZN4absl7debian28AlphaNumC2Ed.exit
  unreachable

35:                                               ; preds = %_ZN4absl7debian28AlphaNumC2Ed.exit
  %36 = landingpad { ptr, i32 }
          cleanup
  call void @_ZNSt7__cxx1112basic_stringIcSt11char_traitsIcESaIcEED1Ev(ptr noundef nonnull align 8 dereferenceable(32) %4) #26
  resume { ptr, i32 } %36
}